; Function Attrs: mustprogress uwtable
define noundef ptr @_ZN19OpenColorIO_v2_5dev14GetEnvVariableEPKc(ptr noundef readonly %0) local_unnamed_addr #0 personality ptr @__gxx_personality_v0 {
  %2 = load atomic i8, ptr @_ZGVZN19OpenColorIO_v2_5dev14GetEnvVariableEPKcE5valueB5cxx11 acquire, align 8
  %3 = icmp eq i8 %2, 0
  br i1 %3, label %4, label %8, !prof !3

4:                                                ; preds = %1
  %5 = tail call i32 @__cxa_guard_acquire(ptr nonnull @_ZGVZN19OpenColorIO_v2_5dev14GetEnvVariableEPKcE5valueB5cxx11) #20
  %.not = icmp eq i32 %5, 0
  br i1 %.not, label %8, label %6

6:                                                ; preds = %4
  store ptr getelementptr inbounds nuw (i8, ptr @_ZZN19OpenColorIO_v2_5dev14GetEnvVariableEPKcE5valueB5cxx11, i64 16), ptr @_ZZN19OpenColorIO_v2_5dev14GetEnvVariableEPKcE5valueB5cxx11, align 8, !tbaa !4
  store i64 0, ptr getelementptr inbounds nuw (i8, ptr @_ZZN19OpenColorIO_v2_5dev14GetEnvVariableEPKcE5valueB5cxx11, i64 8), align 8, !tbaa !10
  store i8 0, ptr getelementptr inbounds nuw (i8, ptr @_ZZN19OpenColorIO_v2_5dev14GetEnvVariableEPKcE5valueB5cxx11, i64 16), align 8, !tbaa !13
  %7 = tail call i32 @__cxa_atexit(ptr nonnull @_ZNSt7__cxx1112basic_stringIcSt11char_traitsIcESaIcEED2Ev, ptr nonnull @_ZZN19OpenColorIO_v2_5dev14GetEnvVariableEPKcE5valueB5cxx11, ptr nonnull @__dso_handle) #20
  tail call void @__cxa_guard_release(ptr nonnull @_ZGVZN19OpenColorIO_v2_5dev14GetEnvVariableEPKcE5valueB5cxx11) #20
  br label %8

8:                                                ; preds = %6, %4, %1
  %.not.i = icmp eq ptr %0, null
  br i1 %.not.i, label %_ZN19OpenColorIO_v2_5dev8Platform6GetenvEPKcRNSt7__cxx1112basic_stringIcSt11char_traitsIcESaIcEEE.exit, label %9

9:                                                ; preds = %8
  %10 = load i8, ptr %0, align 1, !tbaa !13
  %.not11.i = icmp eq i8 %10, 0
  br i1 %.not11.i, label %_ZN19OpenColorIO_v2_5dev8Platform6GetenvEPKcRNSt7__cxx1112basic_stringIcSt11char_traitsIcESaIcEEE.exit, label %11

11:                                               ; preds = %9
  %12 = tail call ptr @getenv(ptr noundef nonnull readonly %0) #20
  %.not1 = icmp eq ptr %12, null
  br i1 %.not1, label %15, label %13

13:                                               ; preds = %11
  %14 = load i8, ptr %12, align 1, !tbaa !13
  %.not12.i = icmp eq i8 %14, 0
  %spec.select.i = select i1 %.not12.i, ptr @.str, ptr %12
  br label %15

15:                                               ; preds = %13, %11
  %16 = phi ptr [ @.str, %11 ], [ %spec.select.i, %13 ]
  %17 = load i64, ptr getelementptr inbounds nuw (i8, ptr @_ZZN19OpenColorIO_v2_5dev14GetEnvVariableEPKcE5valueB5cxx11, i64 8), align 8, !tbaa !10
  %18 = tail call noundef i64 @strlen(ptr noundef nonnull dereferenceable(1) %16) #20
  %19 = tail call noundef nonnull align 8 dereferenceable(32) ptr @_ZNSt7__cxx1112basic_stringIcSt11char_traitsIcESaIcEE10_M_replaceEmmPKcm(ptr noundef nonnull align 8 dereferenceable(32) @_ZZN19OpenColorIO_v2_5dev14GetEnvVariableEPKcE5valueB5cxx11, i64 noundef 0, i64 noundef %17, ptr noundef nonnull %16, i64 noundef %18)
  br label %_ZN19OpenColorIO_v2_5dev8Platform6GetenvEPKcRNSt7__cxx1112basic_stringIcSt11char_traitsIcESaIcEEE.exit

_ZN19OpenColorIO_v2_5dev8Platform6GetenvEPKcRNSt7__cxx1112basic_stringIcSt11char_traitsIcESaIcEEE.exit: ; preds = %8, %9, %15
  %20 = load ptr, ptr @_ZZN19OpenColorIO_v2_5dev14GetEnvVariableEPKcE5valueB5cxx11, align 8, !tbaa !14
  ret ptr %20
}